#include <math.h>
#include <stdio.h>
#include <stdlib.h>
#include <string.h>

int main()
{
	char a[101];
	int i;
	gets(a);
	for(i=0;i<strlen(a)-1;i++)
	{
		if(a[i]!=' ')
		{
			printf("%c",a[i]);
		}
		if(a[i]==' ' && a[i+1]!=' ')
		{
			printf("%c",a[i]);
		}
	}
	printf("%c",a[strlen(a)-1]);
	return 0;
}
